ccopy_reg
_reconstructor
p0
(cgoogle.oauth2.credentials
Credentials
p1
c__builtin__
object
p2
Ntp3
Rp4
(dp5
S'_quota_project_id'
p6
NsS'_token_uri'
p7
Vhttps://oauth2.googleapis.com/token
p8
sS'_client_secret'
p9
VKN3kLoGZwxxddtU0JN469DE9
p10
sS'_id_token'
p11
NsS'token'
p12
Vya29.Il-_BwWdx2lJJ86sULM0vXljq7KiNsKMt4nml_oaI-WTCNuBj3G2HFlrBlAS-diOXY3S8l_pmD424hGeVhKs4HK0SLoia-vJrNCFNQjJcS81SUQRGKcXgLXXRhwNMkjwdg
p13
sS'_refresh_token'
p14
V1//0djqtg78rOr6JCgYIARAAGA0SNwF-L9IrtQZKAS2EQxNdMfiHiytKyw5J3ekldBOr1eAaDccyb3ZJYXnmcT9QwHuszddJvFztrC0
p15
sS'_scopes'
p16
(lp17
S'https://www.googleapis.com/auth/gmail.readonly'
p18
asS'_client_id'
p19
V715418286681-omcj5c9l6ehvfcc9ne888uc5ggrrhquf.apps.googleusercontent.com
p20
sS'expiry'
p21
cdatetime
datetime
p22
(S'\x07\xe4\x02\x19\x17\n0\n\xdc\xae'
p23
tp24
Rp25
sb.